target datalayout = "e-m:e-p270:32:32-p271:32:32-p272:64:64-i64:64-i128:128-f80:128-n8:16:32:64-S128"
target triple = "x86_64-pc-linux-gnu"

%"class.icu_77::MessagePattern" = type <{ %"class.icu_77::UObject", i32, [4 x i8], %"class.icu_77::UnicodeString", ptr, ptr, i32, [4 x i8], ptr, ptr, i32, i8, i8, i8, i8 }>
%"class.icu_77::UObject" = type { ptr }
%"class.icu_77::UnicodeString" = type { %"class.icu_77::Replaceable", %"union.icu_77::UnicodeString::StackBufferOrFields" }
%"class.icu_77::Replaceable" = type { %"class.icu_77::UObject" }
%"union.icu_77::UnicodeString::StackBufferOrFields" = type { %struct.anon.0, [32 x i8] }
%struct.anon.0 = type { i16, i32, i32, ptr }

@_ZTVN6icu_7714MessagePatternE = unnamed_addr constant { [5 x ptr] } { [5 x ptr] [ptr null, ptr @_ZTIN6icu_7714MessagePatternE, ptr @_ZN6icu_7714MessagePatternD1Ev, ptr @_ZN6icu_7714MessagePatternD0Ev, ptr @_ZNK6icu_777UObject17getDynamicClassIDEv] }, align 8
@_ZTVN6icu_777UObjectE = available_externally unnamed_addr constant { [5 x ptr] } { [5 x ptr] [ptr null, ptr @_ZTIN6icu_777UObjectE, ptr @_ZN6icu_777UObjectD1Ev, ptr @_ZN6icu_777UObjectD0Ev, ptr @_ZNK6icu_777UObject17getDynamicClassIDEv] }, align 8

; Function Attrs: inlinehint mustprogress nounwind uwtable
define linkonce_odr void @_ZN6icu_7713UnicodeString13setZeroLengthEv(ptr noundef nonnull align 8 dereferenceable(64) %0) #1 comdat align 2 {
  %2 = alloca ptr, align 8
  store ptr %0, ptr %2, align 8, !tbaa !33
  %3 = load ptr, ptr %2, align 8
  %4 = getelementptr inbounds nuw %"class.icu_77::UnicodeString", ptr %3, i32 0, i32 1
  %5 = getelementptr inbounds nuw %struct.anon.0, ptr %4, i32 0, i32 0
  %6 = load i16, ptr %5, align 8, !tbaa !35
  %7 = sext i16 %6 to i32
  %8 = and i32 %7, 31
  %9 = trunc i32 %8 to i16
  store i16 %9, ptr %5, align 8, !tbaa !35
  ret void
}

; Function Attrs: inlinehint mustprogress nounwind uwtable
define linkonce_odr void @_ZN6icu_7713UnicodeString10setToEmptyEv(ptr noundef nonnull align 8 dereferenceable(64) %0) #1 comdat align 2 {
  %2 = alloca ptr, align 8
  store ptr %0, ptr %2, align 8, !tbaa !33
  %3 = load ptr, ptr %2, align 8
  %4 = getelementptr inbounds nuw %"class.icu_77::UnicodeString", ptr %3, i32 0, i32 1
  %5 = getelementptr inbounds nuw %struct.anon.0, ptr %4, i32 0, i32 0
  store i16 2, ptr %5, align 8, !tbaa !35
  ret void
}

; Function Attrs: inlinehint mustprogress nounwind uwtable
define linkonce_odr noundef signext i8 @_ZNK6icu_7713UnicodeString7isBogusEv(ptr noundef nonnull align 8 dereferenceable(64) %0) #1 comdat align 2 {
  %2 = alloca ptr, align 8
  store ptr %0, ptr %2, align 8, !tbaa !33
  %3 = load ptr, ptr %2, align 8
  %4 = getelementptr inbounds nuw %"class.icu_77::UnicodeString", ptr %3, i32 0, i32 1
  %5 = getelementptr inbounds nuw %struct.anon.0, ptr %4, i32 0, i32 0
  %6 = load i16, ptr %5, align 8, !tbaa !35
  %7 = sext i16 %6 to i32
  %8 = and i32 %7, 1
  %9 = trunc i32 %8 to i8
  ret i8 %9
}

; Function Attrs: inlinehint mustprogress uwtable
define linkonce_odr noundef nonnull align 8 dereferenceable(64) ptr @_ZN6icu_7713UnicodeString6removeEv(ptr noundef nonnull align 8 dereferenceable(64) %0) #2 comdat align 2 {
  %2 = alloca ptr, align 8
  store ptr %0, ptr %2, align 8, !tbaa !33
  %3 = load ptr, ptr %2, align 8
  %4 = call noundef signext i8 @_ZNK6icu_7713UnicodeString7isBogusEv(ptr noundef nonnull align 8 dereferenceable(64) %3)
  %5 = icmp ne i8 %4, 0
  br i1 %5, label %6, label %7

6:                                                ; preds = %1
  call void @_ZN6icu_7713UnicodeString10setToEmptyEv(ptr noundef nonnull align 8 dereferenceable(64) %3)
  br label %8

7:                                                ; preds = %1
  call void @_ZN6icu_7713UnicodeString13setZeroLengthEv(ptr noundef nonnull align 8 dereferenceable(64) %3)
  br label %8

8:                                                ; preds = %7, %6
  ret ptr %3
}

; Function Attrs: mustprogress uwtable
define void @_ZN6icu_7714MessagePattern5clearEv(ptr noundef nonnull align 8 dereferenceable(127) %0) #0 align 2 {
  %2 = alloca ptr, align 8
  store ptr %0, ptr %2, align 8, !tbaa !3
  %3 = load ptr, ptr %2, align 8
  %4 = getelementptr inbounds nuw %"class.icu_77::MessagePattern", ptr %3, i32 0, i32 3
  %5 = call noundef nonnull align 8 dereferenceable(64) ptr @_ZN6icu_7713UnicodeString6removeEv(ptr noundef nonnull align 8 dereferenceable(64) %4)
  %6 = getelementptr inbounds nuw %"class.icu_77::MessagePattern", ptr %3, i32 0, i32 12
  store i8 0, ptr %6, align 1, !tbaa !29
  %7 = getelementptr inbounds nuw %"class.icu_77::MessagePattern", ptr %3, i32 0, i32 11
  store i8 0, ptr %7, align 4, !tbaa !28
  %8 = getelementptr inbounds nuw %"class.icu_77::MessagePattern", ptr %3, i32 0, i32 13
  store i8 0, ptr %8, align 2, !tbaa !30
  %9 = getelementptr inbounds nuw %"class.icu_77::MessagePattern", ptr %3, i32 0, i32 6
  store i32 0, ptr %9, align 8, !tbaa !24
  %10 = getelementptr inbounds nuw %"class.icu_77::MessagePattern", ptr %3, i32 0, i32 10
  store i32 0, ptr %10, align 8, !tbaa !27
  ret void
}

; Function Attrs: inlinehint mustprogress nounwind uwtable
define linkonce_odr void @_ZN6icu_777UObjectC2ERKS0_(ptr noundef nonnull align 8 dereferenceable(8) %0, ptr noundef nonnull align 8 dereferenceable(8) %1) unnamed_addr #1 comdat align 2 {
  %3 = alloca ptr, align 8
  %4 = alloca ptr, align 8
  store ptr %0, ptr %3, align 8, !tbaa !31
  store ptr %1, ptr %4, align 8, !tbaa !31
  %5 = load ptr, ptr %3, align 8
  store ptr getelementptr inbounds inrange(-16, 24) ({ [5 x ptr] }, ptr @_ZTVN6icu_777UObjectE, i32 0, i32 0, i32 2), ptr %5, align 8, !tbaa !9
  ret void
}

; Function Attrs: mustprogress uwtable
define void @_ZN6icu_7714MessagePatternC2ERKS0_(ptr noundef nonnull align 8 dereferenceable(127) %0, ptr noundef nonnull align 8 dereferenceable(127) %1) unnamed_addr #0 align 2 personality ptr @__gxx_personality_v0 {
  %3 = alloca ptr, align 8
  %4 = alloca ptr, align 8
  %5 = alloca ptr, align 8
  %6 = alloca i32, align 4
  %7 = alloca i32, align 4
  store ptr %0, ptr %3, align 8, !tbaa !3
  store ptr %1, ptr %4, align 8, !tbaa !3
  %8 = load ptr, ptr %3, align 8
  %9 = load ptr, ptr %4, align 8, !tbaa !3
  call void @_ZN6icu_777UObjectC2ERKS0_(ptr noundef nonnull align 8 dereferenceable(8) %8, ptr noundef nonnull align 8 dereferenceable(8) %9) #12
  store ptr getelementptr inbounds inrange(-16, 24) ({ [5 x ptr] }, ptr @_ZTVN6icu_7714MessagePatternE, i32 0, i32 0, i32 2), ptr %8, align 8, !tbaa !9
  %10 = getelementptr inbounds nuw %"class.icu_77::MessagePattern", ptr %8, i32 0, i32 1
  %11 = load ptr, ptr %4, align 8, !tbaa !3
  %12 = getelementptr inbounds nuw %"class.icu_77::MessagePattern", ptr %11, i32 0, i32 1
  %13 = load i32, ptr %12, align 8, !tbaa !11
  store i32 %13, ptr %10, align 8, !tbaa !11
  %14 = getelementptr inbounds nuw %"class.icu_77::MessagePattern", ptr %8, i32 0, i32 3
  %15 = load ptr, ptr %4, align 8, !tbaa !3
  %16 = getelementptr inbounds nuw %"class.icu_77::MessagePattern", ptr %15, i32 0, i32 3
  invoke void @_ZN6icu_7713UnicodeStringC1ERKS0_(ptr noundef nonnull align 8 dereferenceable(64) %14, ptr noundef nonnull align 8 dereferenceable(64) %16)
          to label %17 unwind label %42

17:                                               ; preds = %2
  %18 = getelementptr inbounds nuw %"class.icu_77::MessagePattern", ptr %8, i32 0, i32 4
  store ptr null, ptr %18, align 8, !tbaa !22
  %19 = getelementptr inbounds nuw %"class.icu_77::MessagePattern", ptr %8, i32 0, i32 5
  store ptr null, ptr %19, align 8, !tbaa !23
  %20 = getelementptr inbounds nuw %"class.icu_77::MessagePattern", ptr %8, i32 0, i32 6
  store i32 0, ptr %20, align 8, !tbaa !24
  %21 = getelementptr inbounds nuw %"class.icu_77::MessagePattern", ptr %8, i32 0, i32 8
  store ptr null, ptr %21, align 8, !tbaa !25
  %22 = getelementptr inbounds nuw %"class.icu_77::MessagePattern", ptr %8, i32 0, i32 9
  store ptr null, ptr %22, align 8, !tbaa !26
  %23 = getelementptr inbounds nuw %"class.icu_77::MessagePattern", ptr %8, i32 0, i32 10
  store i32 0, ptr %23, align 8, !tbaa !27
  %24 = getelementptr inbounds nuw %"class.icu_77::MessagePattern", ptr %8, i32 0, i32 11
  %25 = load ptr, ptr %4, align 8, !tbaa !3
  %26 = getelementptr inbounds nuw %"class.icu_77::MessagePattern", ptr %25, i32 0, i32 11
  %27 = load i8, ptr %26, align 4, !tbaa !28
  store i8 %27, ptr %24, align 4, !tbaa !28
  %28 = getelementptr inbounds nuw %"class.icu_77::MessagePattern", ptr %8, i32 0, i32 12
  %29 = load ptr, ptr %4, align 8, !tbaa !3
  %30 = getelementptr inbounds nuw %"class.icu_77::MessagePattern", ptr %29, i32 0, i32 12
  %31 = load i8, ptr %30, align 1, !tbaa !29
  store i8 %31, ptr %28, align 1, !tbaa !29
  %32 = getelementptr inbounds nuw %"class.icu_77::MessagePattern", ptr %8, i32 0, i32 13
  %33 = load ptr, ptr %4, align 8, !tbaa !3
  %34 = getelementptr inbounds nuw %"class.icu_77::MessagePattern", ptr %33, i32 0, i32 13
  %35 = load i8, ptr %34, align 2, !tbaa !30
  store i8 %35, ptr %32, align 2, !tbaa !30
  call void @llvm.lifetime.start.p0(i64 4, ptr %7) #12
  store i32 0, ptr %7, align 4, !tbaa !36
  %36 = load ptr, ptr %4, align 8, !tbaa !3
  %37 = invoke noundef signext i8 @_ZN6icu_7714MessagePattern11copyStorageERKS0_R10UErrorCode(ptr noundef nonnull align 8 dereferenceable(127) %8, ptr noundef nonnull align 8 dereferenceable(127) %36, ptr noundef nonnull align 4 dereferenceable(4) %7)
          to label %38 unwind label %46

38:                                               ; preds = %17
  %39 = icmp ne i8 %37, 0
  br i1 %39, label %50, label %40

40:                                               ; preds = %38
  invoke void @_ZN6icu_7714MessagePattern5clearEv(ptr noundef nonnull align 8 dereferenceable(127) %8)
          to label %41 unwind label %46

41:                                               ; preds = %40
  br label %50

42:                                               ; preds = %2
  %43 = landingpad { ptr, i32 }
          cleanup
  %44 = extractvalue { ptr, i32 } %43, 0
  store ptr %44, ptr %5, align 8
  %45 = extractvalue { ptr, i32 } %43, 1
  store i32 %45, ptr %6, align 4
  br label %51

46:                                               ; preds = %40, %17
  %47 = landingpad { ptr, i32 }
          cleanup
  %48 = extractvalue { ptr, i32 } %47, 0
  store ptr %48, ptr %5, align 8
  %49 = extractvalue { ptr, i32 } %47, 1
  store i32 %49, ptr %6, align 4
  call void @llvm.lifetime.end.p0(i64 4, ptr %7) #12
  call void @_ZN6icu_7713UnicodeStringD1Ev(ptr noundef nonnull align 8 dereferenceable(64) %14) #12
  br label %51

50:                                               ; preds = %41, %38
  call void @llvm.lifetime.end.p0(i64 4, ptr %7) #12
  ret void

51:                                               ; preds = %46, %42
  call void @_ZN6icu_777UObjectD2Ev(ptr noundef nonnull align 8 dereferenceable(8) %8) #12
  br label %52

52:                                               ; preds = %51
  %53 = load ptr, ptr %5, align 8
  %54 = load i32, ptr %6, align 4
  %55 = insertvalue { ptr, i32 } poison, ptr %53, 0
  %56 = insertvalue { ptr, i32 } %55, i32 %54, 1
  resume { ptr, i32 } %56
}