; Function Attrs: mustprogress uwtable
define void @_ZN6icu_7714MessagePatternC2ERKS0_(ptr noundef nonnull align 8 dereferenceable(127) initializes((0, 12)) %0, ptr noundef nonnull align 8 dereferenceable(127) %1) unnamed_addr #2 align 2 personality ptr @__gxx_personality_v0 {
  %3 = alloca i32, align 4
  store ptr getelementptr inbounds nuw inrange(-16, 24) (i8, ptr @_ZTVN6icu_7714MessagePatternE, i64 16), ptr %0, align 8, !tbaa !3
  %4 = getelementptr inbounds nuw i8, ptr %0, i64 8
  %5 = getelementptr inbounds nuw i8, ptr %1, i64 8
  %6 = load i32, ptr %5, align 8, !tbaa !6
  store i32 %6, ptr %4, align 8, !tbaa !6
  %7 = getelementptr inbounds nuw i8, ptr %0, i64 16
  %8 = getelementptr inbounds nuw i8, ptr %1, i64 16
  invoke void @_ZN6icu_7713UnicodeStringC1ERKS0_(ptr noundef nonnull align 8 dereferenceable(64) %7, ptr noundef nonnull align 8 dereferenceable(64) %8)
          to label %9 unwind label %30

9:                                                ; preds = %2
  %10 = getelementptr inbounds nuw i8, ptr %0, i64 80
  %11 = getelementptr inbounds nuw i8, ptr %0, i64 96
  %12 = getelementptr inbounds nuw i8, ptr %0, i64 104
  %13 = getelementptr inbounds nuw i8, ptr %0, i64 120
  %14 = getelementptr inbounds nuw i8, ptr %0, i64 124
  %15 = getelementptr inbounds nuw i8, ptr %1, i64 124
  tail call void @llvm.memset.p0.i64(ptr noundef nonnull align 8 dereferenceable(20) %10, i8 0, i64 20, i1 false)
  tail call void @llvm.memset.p0.i64(ptr noundef nonnull align 8 dereferenceable(20) %12, i8 0, i64 20, i1 false)
  %16 = load i8, ptr %15, align 4, !tbaa !37
  store i8 %16, ptr %14, align 4, !tbaa !37
  %17 = getelementptr inbounds nuw i8, ptr %0, i64 125
  %18 = getelementptr inbounds nuw i8, ptr %1, i64 125
  %19 = load i8, ptr %18, align 1, !tbaa !38
  store i8 %19, ptr %17, align 1, !tbaa !38
  %20 = getelementptr inbounds nuw i8, ptr %0, i64 126
  %21 = getelementptr inbounds nuw i8, ptr %1, i64 126
  %22 = load i8, ptr %21, align 2, !tbaa !39
  store i8 %22, ptr %20, align 2, !tbaa !39
  call void @llvm.lifetime.start.p0(i64 4, ptr nonnull %3) #18
  store i32 0, ptr %3, align 4, !tbaa !20
  %23 = invoke noundef signext i8 @_ZN6icu_7714MessagePattern11copyStorageERKS0_R10UErrorCode(ptr noundef nonnull align 8 dereferenceable(127) %0, ptr noundef nonnull align 8 dereferenceable(127) %1, ptr noundef nonnull align 4 dereferenceable(4) %3)
          to label %24 unwind label %32

24:                                               ; preds = %9
  %.not = icmp eq i8 %23, 0
  br i1 %.not, label %25, label %34

25:                                               ; preds = %24
  %26 = getelementptr inbounds nuw i8, ptr %0, i64 24
  %27 = load i16, ptr %26, align 8, !tbaa !19
  %28 = and i16 %27, 1
  %.not.i.i = icmp eq i16 %28, 0
  %29 = and i16 %27, 30
  %storemerge.i.i = select i1 %.not.i.i, i16 %29, i16 2
  store i16 %storemerge.i.i, ptr %26, align 8, !tbaa !19
  store i32 0, ptr %11, align 8, !tbaa !32
  tail call void @llvm.memset.p0.i64(ptr noundef nonnull align 8 dereferenceable(7) %13, i8 0, i64 7, i1 false)
  br label %34

30:                                               ; preds = %2
  %31 = landingpad { ptr, i32 }
          cleanup
  br label %35

32:                                               ; preds = %9
  %33 = landingpad { ptr, i32 }
          cleanup
  call void @llvm.lifetime.end.p0(i64 4, ptr nonnull %3) #18
  tail call void @_ZN6icu_7713UnicodeStringD1Ev(ptr noundef nonnull align 8 dereferenceable(64) %7) #18
  br label %35

34:                                               ; preds = %25, %24
  call void @llvm.lifetime.end.p0(i64 4, ptr nonnull %3) #18
  ret void

35:                                               ; preds = %32, %30
  %.pn = phi { ptr, i32 } [ %33, %32 ], [ %31, %30 ]
  tail call void @_ZN6icu_777UObjectD2Ev(ptr noundef nonnull align 8 dereferenceable(8) %0) #18
  resume { ptr, i32 } %.pn
}